target datalayout = "e-m:e-p270:32:32-p271:32:32-p272:64:64-i64:64-i128:128-f80:128-n8:16:32:64-S128"
target triple = "x86_64-pc-linux-gnu"

%"class.LIEF::MachO::DyldBindingInfo" = type { %"class.LIEF::MachO::BindingInfo", i64, i64, i8, i64 }
%"class.LIEF::MachO::BindingInfo" = type { %"class.LIEF::Object", ptr, ptr, i32, i64, i8, ptr, i64 }
%"class.LIEF::Object" = type { ptr }

@_ZTVN4LIEF5MachO11BindingInfoE = external unnamed_addr constant { [10 x ptr] }, align 8

; Function Attrs: mustprogress nounwind uwtable
define linkonce_odr hidden void @_ZN4LIEF5MachO11BindingInfoC2Ev(ptr noundef nonnull align 8 dereferenceable(64) %0) unnamed_addr #0 comdat align 2 {
  %2 = alloca ptr, align 8
  store ptr %0, ptr %2, align 8, !tbaa !36
  %3 = load ptr, ptr %2, align 8
  call void @_ZN4LIEF6ObjectC2Ev(ptr noundef nonnull align 8 dereferenceable(8) %3)
  store ptr getelementptr inbounds inrange(-16, 64) ({ [10 x ptr] }, ptr @_ZTVN4LIEF5MachO11BindingInfoE, i32 0, i32 0, i32 2), ptr %3, align 8, !tbaa !18
  %4 = getelementptr inbounds nuw %"class.LIEF::MachO::BindingInfo", ptr %3, i32 0, i32 1
  store ptr null, ptr %4, align 8, !tbaa !38
  %5 = getelementptr inbounds nuw %"class.LIEF::MachO::BindingInfo", ptr %3, i32 0, i32 2
  store ptr null, ptr %5, align 8, !tbaa !39
  %6 = getelementptr inbounds nuw %"class.LIEF::MachO::BindingInfo", ptr %3, i32 0, i32 3
  store i32 0, ptr %6, align 8, !tbaa !32
  %7 = getelementptr inbounds nuw %"class.LIEF::MachO::BindingInfo", ptr %3, i32 0, i32 4
  store i64 0, ptr %7, align 8, !tbaa !33
  %8 = getelementptr inbounds nuw %"class.LIEF::MachO::BindingInfo", ptr %3, i32 0, i32 5
  store i8 0, ptr %8, align 8, !tbaa !34
  %9 = getelementptr inbounds nuw %"class.LIEF::MachO::BindingInfo", ptr %3, i32 0, i32 6
  store ptr null, ptr %9, align 8, !tbaa !40
  %10 = getelementptr inbounds nuw %"class.LIEF::MachO::BindingInfo", ptr %3, i32 0, i32 7
  store i64 0, ptr %10, align 8, !tbaa !35
  ret void
}

; Function Attrs: mustprogress nounwind uwtable
define void @_ZN4LIEF5MachO15DyldBindingInfoC2ENS1_5CLASSENS1_4TYPEEmlibbm(ptr noundef nonnull align 8 dereferenceable(96) %0, i64 noundef %1, i64 noundef %2, i64 noundef %3, i64 noundef %4, i32 noundef %5, i1 noundef zeroext %6, i1 noundef zeroext %7, i64 noundef %8) unnamed_addr #0 align 2 {
  %10 = alloca ptr, align 8
  %11 = alloca i64, align 8
  %12 = alloca i64, align 8
  %13 = alloca i64, align 8
  %14 = alloca i64, align 8
  %15 = alloca i32, align 4
  %16 = alloca i8, align 1
  %17 = alloca i8, align 1
  %18 = alloca i64, align 8
  store ptr %0, ptr %10, align 8, !tbaa !3
  store i64 %1, ptr %11, align 8, !tbaa !8
  store i64 %2, ptr %12, align 8, !tbaa !10
  store i64 %3, ptr %13, align 8, !tbaa !12
  store i64 %4, ptr %14, align 8, !tbaa !12
  store i32 %5, ptr %15, align 4, !tbaa !14
  %19 = zext i1 %6 to i8
  store i8 %19, ptr %16, align 1, !tbaa !16
  %20 = zext i1 %7 to i8
  store i8 %20, ptr %17, align 1, !tbaa !16
  store i64 %8, ptr %18, align 8, !tbaa !12
  %21 = load ptr, ptr %10, align 8
  call void @_ZN4LIEF5MachO11BindingInfoC2Ev(ptr noundef nonnull align 8 dereferenceable(64) %21)
  store ptr getelementptr inbounds inrange(-16, 64) ({ [10 x ptr] }, ptr @_ZTVN4LIEF5MachO15DyldBindingInfoE, i32 0, i32 0, i32 2), ptr %21, align 8, !tbaa !18
  %22 = getelementptr inbounds nuw %"class.LIEF::MachO::DyldBindingInfo", ptr %21, i32 0, i32 1
  %23 = load i64, ptr %11, align 8, !tbaa !8
  store i64 %23, ptr %22, align 8, !tbaa !20
  %24 = getelementptr inbounds nuw %"class.LIEF::MachO::DyldBindingInfo", ptr %21, i32 0, i32 2
  %25 = load i64, ptr %12, align 8, !tbaa !10
  store i64 %25, ptr %24, align 8, !tbaa !27
  %26 = getelementptr inbounds nuw %"class.LIEF::MachO::DyldBindingInfo", ptr %21, i32 0, i32 3
  %27 = load i8, ptr %17, align 1, !tbaa !16, !range !28, !noundef !29
  %28 = trunc i8 %27 to i1
  %29 = zext i1 %28 to i8
  store i8 %29, ptr %26, align 8, !tbaa !30
  %30 = getelementptr inbounds nuw %"class.LIEF::MachO::DyldBindingInfo", ptr %21, i32 0, i32 4
  %31 = load i64, ptr %18, align 8, !tbaa !12
  store i64 %31, ptr %30, align 8, !tbaa !31
  %32 = load i32, ptr %15, align 4, !tbaa !14
  %33 = getelementptr inbounds nuw %"class.LIEF::MachO::BindingInfo", ptr %21, i32 0, i32 3
  store i32 %32, ptr %33, align 8, !tbaa !32
  %34 = load i64, ptr %14, align 8, !tbaa !12
  %35 = getelementptr inbounds nuw %"class.LIEF::MachO::BindingInfo", ptr %21, i32 0, i32 4
  store i64 %34, ptr %35, align 8, !tbaa !33
  %36 = load i8, ptr %16, align 1, !tbaa !16, !range !28, !noundef !29
  %37 = trunc i8 %36 to i1
  %38 = getelementptr inbounds nuw %"class.LIEF::MachO::BindingInfo", ptr %21, i32 0, i32 5
  %39 = zext i1 %37 to i8
  store i8 %39, ptr %38, align 8, !tbaa !34
  %40 = load i64, ptr %13, align 8, !tbaa !12
  %41 = getelementptr inbounds nuw %"class.LIEF::MachO::BindingInfo", ptr %21, i32 0, i32 7
  store i64 %40, ptr %41, align 8, !tbaa !35
  ret void
}