; Function Attrs: mustprogress nounwind uwtable
define void @_ZN4LIEF5MachO15DyldBindingInfoC2ENS1_5CLASSENS1_4TYPEEmlibbm(ptr noundef nonnull align 8 dereferenceable(96) %0, i64 noundef %1, i64 noundef %2, i64 noundef %3, i64 noundef %4, i32 noundef %5, i1 noundef zeroext %6, i1 noundef zeroext %7, i64 noundef %8) unnamed_addr #0 align 2 {
  %10 = zext i1 %6 to i8
  %11 = zext i1 %7 to i8
  tail call void @_ZN4LIEF6ObjectC2Ev(ptr noundef nonnull align 8 dereferenceable(64) %0) #6
  %12 = getelementptr inbounds nuw i8, ptr %0, i64 8
  %13 = getelementptr inbounds nuw i8, ptr %0, i64 32
  %14 = getelementptr inbounds nuw i8, ptr %0, i64 40
  %15 = getelementptr inbounds nuw i8, ptr %0, i64 48
  tail call void @llvm.memset.p0.i64(ptr noundef nonnull align 8 dereferenceable(20) %12, i8 0, i64 16, i1 false)
  store i64 0, ptr %15, align 8
  store ptr getelementptr inbounds nuw inrange(-16, 64) (i8, ptr @_ZTVN4LIEF5MachO15DyldBindingInfoE, i64 16), ptr %0, align 8, !tbaa !3
  %16 = getelementptr inbounds nuw i8, ptr %0, i64 64
  store i64 %1, ptr %16, align 8, !tbaa !6
  %17 = getelementptr inbounds nuw i8, ptr %0, i64 72
  store i64 %2, ptr %17, align 8, !tbaa !20
  %18 = getelementptr inbounds nuw i8, ptr %0, i64 80
  store i8 %11, ptr %18, align 8, !tbaa !21
  %19 = getelementptr inbounds nuw i8, ptr %0, i64 88
  store i64 %8, ptr %19, align 8, !tbaa !22
  %20 = getelementptr inbounds nuw i8, ptr %0, i64 24
  store i32 %5, ptr %20, align 8, !tbaa !23
  store i64 %4, ptr %13, align 8, !tbaa !24
  store i8 %10, ptr %14, align 8, !tbaa !25
  %21 = getelementptr inbounds nuw i8, ptr %0, i64 56
  store i64 %3, ptr %21, align 8, !tbaa !26
  ret void
}